ccopy_reg
_reconstructor
p0
(csklearn.pipeline
Pipeline
p1
c__builtin__
object
p2
Ntp3
Rp4
(dp5
S'_sklearn_version'
p6
S'0.18.1'
p7
sS'steps'
p8
(lp9
(S'minmaxscaler'
p10
g0
(csklearn.preprocessing.data
MinMaxScaler
p11
g2
Ntp12
Rp13
(dp14
S'data_min_'
p15
cnumpy.core.multiarray
_reconstruct
p16
(cnumpy
ndarray
p17
(I0
tp18
S'b'
p19
tp20
Rp21
(I1
(L2L
tp22
cnumpy
dtype
p23
(S'f8'
p24
I0
I1
tp25
Rp26
(I3
S'<'
p27
NNNI-1
I-1
I0
tp28
bI00
S'\x00\x00\x00\x00\x00\x00\x00\x00\x00\x00\x00\x00\x00\x00\x00\x00'
p29
tp30
bsS'feature_range'
p31
(I0
I1
tp32
sS'data_range_'
p33
g16
(g17
(I0
tp34
g19
tp35
Rp36
(I1
(L2L
tp37
g26
I00
S"\x00\x00\x00\x00\xeb`\x80A\xa8a\xf0\x8e't\xfd?"
p38
tp39
bsS'scale_'
p40
g16
(g17
(I0
tp41
g19
tp42
Rp43
(I1
(L2L
tp44
g26
I00
S'\xd2\x8a-\xff\xa4B_>6\xcf\xb7E\x19b\xe1?'
p45
tp46
bsS'data_max_'
p47
g16
(g17
(I0
tp48
g19
tp49
Rp50
(I1
(L2L
tp51
g26
I00
S"\x00\x00\x00\x00\xeb`\x80A\xa8a\xf0\x8e't\xfd?"
p52
tp53
bsS'n_samples_seen_'
p54
L108L
sS'min_'
p55
g16
(g17
(I0
tp56
g19
tp57
Rp58
(I1
(L2L
tp59
g26
I00
S'\x00\x00\x00\x00\x00\x00\x00\x00\x00\x00\x00\x00\x00\x00\x00\x00'
p60
tp61
bsg6
g7
sS'copy'
p62
I01
sbtp63
a(S'nearestcentroid'
p64
g0
(csklearn.neighbors.nearest_centroid
NearestCentroid
p65
g2
Ntp66
Rp67
(dp68
S'centroids_'
p69
g16
(g17
(I0
tp70
g19
tp71
Rp72
(I1
(L2L
L2L
tp73
g26
I00
S'"\xf2GI_\x9a\xa9?;\xdd\x96\xbf|;\xd9?\x7f\xf5\xc0\xacT^\xd0?b\x064\xeb\x91\xba\xe5?'
p74
tp75
bsS'metric'
p76
S'euclidean'
p77
sS'classes_'
p78
g16
(g17
(I0
tp79
g19
tp80
Rp81
(I1
(L2L
tp82
g26
I00
S'\x00\x00\x00\x00\x00\x00\x00\x00\x00\x00\x00\x00\x00\x00\xf0?'
p83
tp84
bsg6
g7
sS'shrink_threshold'
p85
Nsbtp86
asb.