(dp0
S'METTS MARK'
p1
(dp2
S'to_messages'
p3
I807
sS'deferral_payments'
p4
S'NaN'
p5
sS'expenses'
p6
I94299
sS'poi'
p7
I00
sS'deferred_income'
p8
g5
sS'email_address'
p9
S'mark.metts@enron.com'
p10
sS'long_term_incentive'
p11
g5
sS'shared_with_poi_ratio'
p12
F0.9128738621586476
sS'restricted_stock_deferred'
p13
g5
sS'shared_receipt_with_poi'
p14
I702
sS'loan_advances'
p15
g5
sS'from_messages'
p16
I29
sS'other'
p17
I1740
sS'to_poi_ratio'
p18
F0.0012376237623762376
sS'director_fees'
p19
g5
sS'poi_email_ratio'
p20
F1.4812756650255015
sS'bonus'
p21
I600000
sS'total_stock_value'
p22
I585062
sS'from_poi_to_this_person'
p23
I38
sS'from_this_person_to_poi'
p24
I1
sS'from_poi_ratio'
p25
F0.5671641791044776
sS'restricted_stock'
p26
I585062
sS'salary'
p27
I365788
sS'total_payments'
p28
I1061827
sS'exercised_stock_options'
p29
g5
ssS'BAXTER JOHN C'
p30
(dp31
g3
g5
sg4
I1295738
sg6
I11200
sg7
I00
sg8
I-1386055
sg9
g5
sg11
I1586055
sg12
S'NaN'
p32
sg13
g5
sg14
g5
sg15
g5
sg16
g5
sg17
I2660303
sg18
g32
sg19
g5
sg20
g32
sg21
I1200000
sg22
I10623258
sg23
g5
sg24
g5
sg25
g32
sg26
I3942714
sg27
I267102
sg28
I5634343
sg29
I6680544
ssS'ELLIOTT STEVEN'
p33
(dp34
g3
g5
sg4
g5
sg6
I78552
sg7
I00
sg8
I-400729
sg9
S'steven.elliott@enron.com'
p35
sg11
g5
sg12
g32
sg13
g5
sg14
g5
sg15
g5
sg16
g5
sg17
I12961
sg18
g32
sg19
g5
sg20
g32
sg21
I350000
sg22
I6678735
sg23
g5
sg24
g5
sg25
g32
sg26
I1788391
sg27
I170941
sg28
I211725
sg29
I4890344
ssS'CORDES WILLIAM R'
p36
(dp37
g3
I764
sg4
g5
sg6
g5
sg7
I00
sg8
g5
sg9
S'bill.cordes@enron.com'
p38
sg11
g5
sg12
F0.725
sg13
g5
sg14
I58
sg15
g5
sg16
I12
sg17
g5
sg18
F0.0
sg19
g5
sg20
F1.1795454545454545
sg21
g5
sg22
I1038185
sg23
I10
sg24
I0
sg25
F0.45454545454545453
sg26
I386335
sg27
g5
sg28
g5
sg29
I651850
ssS'HANNON KEVIN P'
p39
(dp40
g3
I1045
sg4
g5
sg6
I34039
sg7
I01
sg8
I-3117011
sg9
S'kevin.hannon@enron.com'
p41
sg11
I1617011
sg12
F0.9417652411282984
sg13
g5
sg14
I1035
sg15
g5
sg16
I32
sg17
I11350
sg18
F0.019699812382739212
sg19
g5
sg20
F1.4614650535110376
sg21
I1500000
sg22
I6391065
sg23
I32
sg24
I21
sg25
F0.5
sg26
I853064
sg27
I243293
sg28
I288682
sg29
I5538001
ssS'MORDAUNT KRISTINA M'
p42
(dp43
g3
g5
sg4
g5
sg6
I35018
sg7
I00
sg8
g5
sg9
S'kristina.mordaunt@enron.com'
p44
sg11
g5
sg12
g32
sg13
g5
sg14
g5
sg15
g5
sg16
g5
sg17
I1411
sg18
g32
sg19
g5
sg20
g32
sg21
I325000
sg22
I208510
sg23
g5
sg24
g5
sg25
g32
sg26
I208510
sg27
I267093
sg28
I628522
sg29
g5
ssS'MEYER ROCKFORD G'
p45
(dp46
g3
I232
sg4
I1848227
sg6
g5
sg7
I00
sg8
g5
sg9
S'rockford.meyer@enron.com'
p47
sg11
g5
sg12
F0.44
sg13
g5
sg14
I22
sg15
g5
sg16
I28
sg17
g5
sg18
F0.0
sg19
g5
sg20
F0.44
sg21
g5
sg22
I955873
sg23
I0
sg24
I0
sg25
F0.0
sg26
I462384
sg27
g5
sg28
I1848227
sg29
I493489
ssS'MCMAHON JEFFREY'
p48
(dp49
g3
I2355
sg4
g5
sg6
I137108
sg7
I00
sg8
g5
sg9
S'jeffrey.mcmahon@enron.com'
p50
sg11
I694862
sg12
F0.9545844044558698
sg13
g5
sg14
I2228
sg15
g5
sg16
I48
sg17
I297353
sg18
F0.010919781604367913
sg19
g5
sg20
F1.5126739973809924
sg21
I2600000
sg22
I1662855
sg23
I58
sg24
I26
sg25
F0.5471698113207547
sg26
I558801
sg27
I370448
sg28
I4099771
sg29
I1104054
ssS'HORTON STANLEY C'
p51
(dp52
g3
I2350
sg4
I3131860
sg6
g5
sg7
I00
sg8
g5
sg9
S'stanley.horton@enron.com'
p53
sg11
g5
sg12
F0.4901871291647649
sg13
g5
sg14
I1074
sg15
g5
sg16
I1073
sg17
g5
sg18
F0.006342494714587738
sg19
g5
sg20
F0.535920850378905
sg21
g5
sg22
I7256648
sg23
I44
sg24
I15
sg25
F0.03939122649955237
sg26
I2046079
sg27
g5
sg28
I3131860
sg29
I5210569
ssS'PIPER GREGORY F'
p54
(dp55
g3
I1238
sg4
I1130036
sg6
I43057
sg7
I00
sg8
I-33333
sg9
S'greg.piper@enron.com'
p56
sg11
g5
sg12
F0.7239024390243902
sg13
I-409554
sg14
I742
sg15
g5
sg16
I222
sg17
I778
sg18
F0.03732503888024884
sg19
g5
sg20
F0.9767751810848511
sg21
I400000
sg22
I880290
sg23
I61
sg24
I48
sg25
F0.21554770318021202
sg26
I409554
sg27
I197091
sg28
I1737629
sg29
I880290
ssS'HUMPHREY GENE E'
p57
(dp58
g3
I128
sg4
I2964506
sg6
I4994
sg7
I00
sg8
g5
sg9
S'gene.humphrey@enron.com'
p59
sg11
g5
sg12
F0.815068493150685
sg13
g5
sg14
I119
sg15
g5
sg16
I17
sg17
g5
sg18
F0.11724137931034483
sg19
g5
sg20
F1.3026802428314002
sg21
g5
sg22
I2282768
sg23
I10
sg24
I17
sg25
F0.37037037037037035
sg26
g5
sg27
I130724
sg28
I3100224
sg29
I2282768
ssS'UMANOFF ADAM S'
p60
(dp61
g3
I111
sg4
g5
sg6
I53122
sg7
I00
sg8
g5
sg9
S'adam.umanoff@enron.com'
p62
sg11
g5
sg12
F0.5774647887323944
sg13
g5
sg14
I41
sg15
g5
sg16
I18
sg17
g5
sg18
F0.0
sg19
g5
sg20
F0.9774647887323944
sg21
I788750
sg22
g5
sg23
I12
sg24
I0
sg25
F0.4
sg26
g5
sg27
I288589
sg28
I1130461
sg29
g5
ssS'BLACHMAN JEREMY M'
p63
(dp64
g3
I2475
sg4
g5
sg6
I84208
sg7
I00
sg8
g5
sg9
S'jeremy.blachman@enron.com'
p65
sg11
I831809
sg12
F0.9835095137420719
sg13
g5
sg14
I2326
sg15
g5
sg16
I14
sg17
I272
sg18
F0.0008074283407347598
sg19
g5
sg20
F1.6253425831084476
sg21
I850000
sg22
I954354
sg23
I25
sg24
I2
sg25
F0.6410256410256411
sg26
I189041
sg27
I248546
sg28
I2014835
sg29
I765313
ssS'SUNDE MARTIN'
p66
(dp67
g3
I2647
sg4
g5
sg6
g5
sg7
I00
sg8
g5
sg9
S'marty.sunde@enron.com'
p68
sg11
I476451
sg12
F0.9715909090909091
sg13
g5
sg14
I2565
sg15
g5
sg16
I38
sg17
I111122
sg18
F0.004887218045112782
sg19
g5
sg20
F1.469811460469355
sg21
I700000
sg22
I698920
sg23
I37
sg24
I13
sg25
F0.49333333333333335
sg26
I698920
sg27
I257486
sg28
I1545059
sg29
g5
ssS'GIBBS DANA R'
p69
(dp70
g3
I169
sg4
I504610
sg6
g5
sg7
I00
sg8
g5
sg9
S'dana.gibbs@enron.com'
p71
sg11
I461912
sg12
F0.6571428571428571
sg13
g5
sg14
I23
sg15
g5
sg16
I12
sg17
g5
sg18
F0.0
sg19
g5
sg20
F0.6571428571428571
sg21
g5
sg22
I2218275
sg23
I0
sg24
I0
sg25
F0.0
sg26
g5
sg27
g5
sg28
I966522
sg29
I2218275
ssS'LOWRY CHARLES P'
p72
(dp73
g3
g5
sg4
g5
sg6
g5
sg7
I00
sg8
g5
sg9
g5
sg11
g5
sg12
g32
sg13
I-153686
sg14
g5
sg15
g5
sg16
g5
sg17
g5
sg18
g32
sg19
g5
sg20
g32
sg21
g5
sg22
I372205
sg23
g5
sg24
g5
sg25
g32
sg26
I153686
sg27
g5
sg28
g5
sg29
I372205
ssS'COLWELL WESLEY'
p74
(dp75
g3
I1758
sg4
I27610
sg6
I16514
sg7
I01
sg8
I-144062
sg9
S'wes.colwell@enron.com'
p76
sg11
g5
sg12
F0.8016997167138811
sg13
g5
sg14
I1132
sg15
g5
sg16
I40
sg17
I101740
sg18
F0.006218202374222725
sg19
g5
sg20
F1.6650607762309608
sg21
I1200000
sg22
I698242
sg23
I240
sg24
I11
sg25
F0.8571428571428571
sg26
I698242
sg27
I288542
sg28
I1490344
sg29
g5
ssS'MULLER MARK S'
p77
(dp78
g3
I136
sg4
I842924
sg6
g5
sg7
I00
sg8
I-719000
sg9
S's..muller@enron.com'
p79
sg11
I1725545
sg12
F0.8028169014084507
sg13
g5
sg14
I114
sg15
g5
sg16
I16
sg17
I947
sg18
F0.0
sg19
g5
sg20
F1.2313883299798793
sg21
I1100000
sg22
I1416848
sg23
I12
sg24
I0
sg25
F0.42857142857142855
sg26
I360528
sg27
I251654
sg28
I3202070
sg29
I1056320
ssS'JACKSON CHARLENE R'
p80
(dp81
g3
I258
sg4
g5
sg6
I10181
sg7
I00
sg8
g5
sg9
S'charlene.jackson@enron.com'
p82
sg11
g5
sg12
F0.5909090909090909
sg13
g5
sg14
I117
sg15
g5
sg16
I56
sg17
I2435
sg18
F0.06859205776173286
sg19
g5
sg20
F0.9681431239794658
sg21
I250000
sg22
I725735
sg23
I25
sg24
I19
sg25
F0.30864197530864196
sg26
I540672
sg27
I288558
sg28
I551174
sg29
I185063
ssS'WESTFAHL RICHARD K'
p83
(dp84
g3
g5
sg4
g5
sg6
I51870
sg7
I00
sg8
I-10800
sg9
S'dick.westfahl@enron.com'
p85
sg11
I256191
sg12
g32
sg13
g5
sg14
g5
sg15
g5
sg16
g5
sg17
I401130
sg18
g32
sg19
g5
sg20
g32
sg21
g5
sg22
I384930
sg23
g5
sg24
g5
sg25
g32
sg26
I384930
sg27
I63744
sg28
I762135
sg29
g5
ssS'WALTERS GARETH W'
p86
(dp87
g3
g5
sg4
I53625
sg6
I33785
sg7
I00
sg8
g5
sg9
g5
sg11
g5
sg12
g32
sg13
g5
sg14
g5
sg15
g5
sg16
g5
sg17
g5
sg18
g32
sg19
g5
sg20
g32
sg21
g5
sg22
I1030329
sg23
g5
sg24
g5
sg25
g32
sg26
g5
sg27
g5
sg28
I87410
sg29
I1030329
ssS'WALLS JR ROBERT H'
p88
(dp89
g3
I671
sg4
g5
sg6
I50936
sg7
I00
sg8
g5
sg9
S'rob.walls@enron.com'
p90
sg11
I540751
sg12
F0.5687830687830688
sg13
g5
sg14
I215
sg15
g5
sg16
I146
sg17
I2
sg18
F0.0
sg19
g5
sg20
F0.6730775473106761
sg21
I850000
sg22
I5898997
sg23
I17
sg24
I0
sg25
F0.10429447852760736
sg26
I1552453
sg27
I357091
sg28
I1798780
sg29
I4346544
ssS'KITCHEN LOUISE'
p91
(dp92
g3
I8305
sg4
g5
sg6
I5774
sg7
I00
sg8
g5
sg9
S'louise.kitchen@enron.com'
p93
sg11
g5
sg12
F0.6496104815864022
sg13
g5
sg14
I3669
sg15
g5
sg16
I1728
sg17
I93925
sg18
F0.022826214848805742
sg19
g5
sg20
F0.7992684296337931
sg21
I3100000
sg22
I547143
sg23
I251
sg24
I194
sg25
F0.12683173319858515
sg26
I466101
sg27
I271442
sg28
I3471141
sg29
I81042
ssS'CHAN RONNIE'
p94
(dp95
g3
g5
sg4
g5
sg6
g5
sg7
I00
sg8
I-98784
sg9
g5
sg11
g5
sg12
g32
sg13
I-32460
sg14
g5
sg15
g5
sg16
g5
sg17
g5
sg18
g32
sg19
I98784
sg20
g32
sg21
g5
sg22
g5
sg23
g5
sg24
g5
sg25
g32
sg26
I32460
sg27
g5
sg28
g5
sg29
g5
ssS'BELFER ROBERT'
p96
(dp97
g3
g5
sg4
I-102500
sg6
g5
sg7
I00
sg8
g5
sg9
g5
sg11
g5
sg12
g32
sg13
I44093
sg14
g5
sg15
g5
sg16
g5
sg17
g5
sg18
g32
sg19
I3285
sg20
g32
sg21
g5
sg22
I-44093
sg23
g5
sg24
g5
sg25
g32
sg26
g5
sg27
g5
sg28
I102500
sg29
I3285
ssS'SHANKMAN JEFFREY A'
p98
(dp99
g3
I3221
sg4
g5
sg6
I178979
sg7
I00
sg8
g5
sg9
S'jeffrey.shankman@enron.com'
p100
sg11
I554422
sg12
F0.38401775804661487
sg13
g5
sg14
I1730
sg15
g5
sg16
I2681
sg17
I1191
sg18
F0.025121065375302662
sg19
g5
sg20
F0.4430126972957914
sg21
I2000000
sg22
I2072035
sg23
I94
sg24
I83
sg25
F0.033873873873873875
sg26
I630137
sg27
I304110
sg28
I3038702
sg29
I1441898
ssS'WODRASKA JOHN'
p101
(dp102
g3
g5
sg4
g5
sg6
g5
sg7
I00
sg8
g5
sg9
S'john.wodraska@enron.com'
p103
sg11
g5
sg12
g32
sg13
g5
sg14
g5
sg15
g5
sg16
g5
sg17
I189583
sg18
g32
sg19
g5
sg20
g32
sg21
g5
sg22
g5
sg23
g5
sg24
g5
sg25
g32
sg26
g5
sg27
g5
sg28
I189583
sg29
g5
ssS'BERGSIEKER RICHARD P'
p104
(dp105
g3
I383
sg4
g5
sg6
I59175
sg7
I00
sg8
I-485813
sg9
S'rick.bergsieker@enron.com'
p106
sg11
I180250
sg12
F0.7871621621621622
sg13
g5
sg14
I233
sg15
g5
sg16
I59
sg17
I427316
sg18
F0.0
sg19
g5
sg20
F0.8506542256542257
sg21
I250000
sg22
I659249
sg23
I4
sg24
I0
sg25
F0.06349206349206349
sg26
I659249
sg27
I187922
sg28
I618850
sg29
g5
ssS'URQUHART JOHN A'
p107
(dp108
g3
g5
sg4
g5
sg6
I228656
sg7
I00
sg8
I-36666
sg9
g5
sg11
g5
sg12
g32
sg13
g5
sg14
g5
sg15
g5
sg16
g5
sg17
g5
sg18
g32
sg19
I36666
sg20
g32
sg21
g5
sg22
g5
sg23
g5
sg24
g5
sg25
g32
sg26
g5
sg27
g5
sg28
I228656
sg29
g5
ssS'BIBI PHILIPPE A'
p109
(dp110
g3
I1607
sg4
g5
sg6
I38559
sg7
I00
sg8
g5
sg9
S'philippe.bibi@enron.com'
p111
sg11
I369721
sg12
F0.9549678341672623
sg13
g5
sg14
I1336
sg15
g5
sg16
I40
sg17
I425688
sg18
F0.004953560371517028
sg19
g5
sg20
F1.3250007596181443
sg21
I1000000
sg22
I1843816
sg23
I23
sg24
I8
sg25
F0.36507936507936506
sg26
I378082
sg27
I213625
sg28
I2047593
sg29
I1465734
ssS'RIEKER PAULA H'
p112
(dp113
g3
I1328
sg4
I214678
sg6
I33271
sg7
I01
sg8
I-100000
sg9
S'paula.rieker@enron.com'
p114
sg11
g5
sg12
F0.9149090909090909
sg13
g5
sg14
I1258
sg15
g5
sg16
I82
sg17
I1950
sg18
F0.03488372093023256
sg19
g5
sg20
F1.2489381109846227
sg21
I700000
sg22
I1918887
sg23
I35
sg24
I48
sg25
F0.29914529914529914
sg26
I283649
sg27
I249201
sg28
I1099100
sg29
I1635238
ssS'WHALEY DAVID A'
p115
(dp116
g3
g5
sg4
g5
sg6
g5
sg7
I00
sg8
g5
sg9
g5
sg11
g5
sg12
g32
sg13
g5
sg14
g5
sg15
g5
sg16
g5
sg17
g5
sg18
g32
sg19
g5
sg20
g32
sg21
g5
sg22
I98718
sg23
g5
sg24
g5
sg25
g32
sg26
g5
sg27
g5
sg28
g5
sg29
I98718
ssS'BECK SALLY W'
p117
(dp118
g3
I7315
sg4
g5
sg6
I37172
sg7
I00
sg8
g5
sg9
S'sally.beck@enron.com'
p119
sg11
g5
sg12
F0.3703339882121807
sg13
g5
sg14
I2639
sg15
g5
sg16
I4343
sg17
I566
sg18
F0.05012336060251915
sg19
g5
sg20
F0.45255006109461965
sg21
I700000
sg22
I126027
sg23
I144
sg24
I386
sg25
F0.03209271227991977
sg26
I126027
sg27
I231330
sg28
I969068
sg29
g5
ssS'HAUG DAVID L'
p120
(dp121
g3
I573
sg4
g5
sg6
I475
sg7
I00
sg8
g5
sg9
S'david.haug@enron.com'
p122
sg11
g5
sg12
F0.9534412955465587
sg13
g5
sg14
I471
sg15
g5
sg16
I19
sg17
g5
sg18
F0.01206896551724138
sg19
g5
sg20
F1.139423304542061
sg21
g5
sg22
I2217299
sg23
I4
sg24
I7
sg25
F0.17391304347826086
sg26
I2217299
sg27
g5
sg28
I475
sg29
g5
ssS'ECHOLS JOHN B'
p123
(dp124
g3
g5
sg4
g5
sg6
I21530
sg7
I00
sg8
g5
sg9
S'john.echols@enron.com'
p125
sg11
I2234774
sg12
g32
sg13
g5
sg14
g5
sg15
g5
sg16
g5
sg17
I53775
sg18
g32
sg19
g5
sg20
g32
sg21
I200000
sg22
I1008941
sg23
g5
sg24
g5
sg25
g32
sg26
I407503
sg27
I182245
sg28
I2692324
sg29
I601438
ssS'MENDELSOHN JOHN'
p126
(dp127
g3
g5
sg4
g5
sg6
I148
sg7
I00
sg8
I-103750
sg9
g5
sg11
g5
sg12
g32
sg13
g5
sg14
g5
sg15
g5
sg16
g5
sg17
g5
sg18
g32
sg19
I103750
sg20
g32
sg21
g5
sg22
g5
sg23
g5
sg24
g5
sg25
g32
sg26
g5
sg27
g5
sg28
I148
sg29
g5
ssS'HICKERSON GARY J'
p128
(dp129
g3
I1320
sg4
g5
sg6
I98849
sg7
I00
sg8
g5
sg9
S'gary.hickerson@enron.com'
p130
sg11
I69223
sg12
F0.9307135470527405
sg13
g5
sg14
I900
sg15
g5
sg16
I27
sg17
I1936
sg18
F0.000757002271006813
sg19
g5
sg20
F1.5284854746968817
sg21
I1700000
sg22
I441096
sg23
I40
sg24
I1
sg25
F0.5970149253731343
sg26
I441096
sg27
I211788
sg28
I2081796
sg29
g5
ssS'CLINE KENNETH W'
p131
(dp132
g3
g5
sg4
g5
sg6
g5
sg7
I00
sg8
g5
sg9
g5
sg11
g5
sg12
g32
sg13
I-472568
sg14
g5
sg15
g5
sg16
g5
sg17
g5
sg18
g32
sg19
g5
sg20
g32
sg21
g5
sg22
I189518
sg23
g5
sg24
g5
sg25
g32
sg26
I662086
sg27
g5
sg28
g5
sg29
g5
ssS'LEWIS RICHARD'
p133
(dp134
g3
I952
sg4
g5
sg6
g5
sg7
I00
sg8
g5
sg9
S'richard.lewis@enron.com'
p135
sg11
g5
sg12
F0.9535483870967741
sg13
g5
sg14
I739
sg15
g5
sg16
I26
sg17
g5
sg18
F0.0
sg19
g5
sg20
F1.231326164874552
sg21
g5
sg22
I850477
sg23
I10
sg24
I0
sg25
F0.2777777777777778
sg26
g5
sg27
g5
sg28
g5
sg29
I850477
ssS'HAYES ROBERT E'
p136
(dp137
g3
I504
sg4
I7961
sg6
g5
sg7
I00
sg8
g5
sg9
S'robert.hayes@enron.com'
p138
sg11
g5
sg12
F0.6410256410256411
sg13
g5
sg14
I50
sg15
g5
sg16
I12
sg17
g5
sg18
F0.0
sg19
g5
sg20
F1.2124542124542126
sg21
g5
sg22
I151418
sg23
I16
sg24
I0
sg25
F0.5714285714285714
sg26
I151418
sg27
g5
sg28
I7961
sg29
g5
ssS'MCCARTY DANNY J'
p139
(dp140
g3
I1433
sg4
g5
sg6
g5
sg7
I00
sg8
g5
sg9
S'danny.mccarty@enron.com'
p141
sg11
g5
sg12
F0.679144385026738
sg13
g5
sg14
I508
sg15
g5
sg16
I215
sg17
g5
sg18
F0.0013937282229965157
sg19
g5
sg20
F0.7847047799164012
sg21
g5
sg22
I758931
sg23
I25
sg24
I2
sg25
F0.10416666666666667
sg26
I94556
sg27
g5
sg28
g5
sg29
I664375
ssS'KOPPER MICHAEL J'
p142
(dp143
g3
g5
sg4
g5
sg6
I118134
sg7
I01
sg8
g5
sg9
S'michael.kopper@enron.com'
p144
sg11
I602671
sg12
g32
sg13
g5
sg14
g5
sg15
g5
sg16
g5
sg17
I907502
sg18
g32
sg19
g5
sg20
g32
sg21
I800000
sg22
I985032
sg23
g5
sg24
g5
sg25
g32
sg26
I985032
sg27
I224305
sg28
I2652612
sg29
g5
ssS'LEFF DANIEL P'
p145
(dp146
g3
I2822
sg4
g5
sg6
g5
sg7
I00
sg8
g5
sg9
S'dan.leff@enron.com'
p147
sg11
I1387399
sg12
F0.953604568165596
sg13
g5
sg14
I2672
sg15
g5
sg16
I63
sg17
I3083
sg18
F0.004936530324400564
sg19
g5
sg20
F1.4739257138746118
sg21
I1000000
sg22
I360528
sg23
I67
sg24
I14
sg25
F0.5153846153846153
sg26
I360528
sg27
I273746
sg28
I2664228
sg29
g5
ssS'LAVORATO JOHN J'
p148
(dp149
g3
I7259
sg4
g5
sg6
I49537
sg7
I00
sg8
g5
sg9
S'john.lavorato@enron.com'
p150
sg11
I2035380
sg12
F0.56
sg13
g5
sg14
I3962
sg15
g5
sg16
I2585
sg17
I1552
sg18
F0.05358539765319426
sg19
g5
sg20
F0.783196705073689
sg21
I8000000
sg22
I5167144
sg23
I528
sg24
I411
sg25
F0.1696113074204947
sg26
I1008149
sg27
I339288
sg28
I10425757
sg29
I4158995
ssS'BERBERIAN DAVID'
p151
(dp152
g3
g5
sg4
g5
sg6
I11892
sg7
I00
sg8
g5
sg9
S'david.berberian@enron.com'
p153
sg11
g5
sg12
g32
sg13
g5
sg14
g5
sg15
g5
sg16
g5
sg17
g5
sg18
g32
sg19
g5
sg20
g32
sg21
g5
sg22
I2493616
sg23
g5
sg24
g5
sg25
g32
sg26
I869220
sg27
I216582
sg28
I228474
sg29
I1624396
ssS'DETMERING TIMOTHY J'
p154
(dp155
g3
g5
sg4
I875307
sg6
I52255
sg7
I00
sg8
I-775241
sg9
S'timothy.detmering@enron.com'
p156
sg11
I415657
sg12
g32
sg13
I-315068
sg14
g5
sg15
g5
sg16
g5
sg17
I1105
sg18
g32
sg19
g5
sg20
g32
sg21
I425000
sg22
I2027865
sg23
g5
sg24
g5
sg25
g32
sg26
I315068
sg27
I210500
sg28
I1204583
sg29
I2027865
ssS'WAKEHAM JOHN'
p157
(dp158
g3
g5
sg4
g5
sg6
I103773
sg7
I00
sg8
g5
sg9
g5
sg11
g5
sg12
g32
sg13
g5
sg14
g5
sg15
g5
sg16
g5
sg17
g5
sg18
g32
sg19
I109298
sg20
g32
sg21
g5
sg22
g5
sg23
g5
sg24
g5
sg25
g32
sg26
g5
sg27
g5
sg28
I213071
sg29
g5
ssS'POWERS WILLIAM'
p159
(dp160
g3
I653
sg4
g5
sg6
g5
sg7
I00
sg8
I-17500
sg9
S'ken.powers@enron.com'
p161
sg11
g5
sg12
F0.3157894736842105
sg13
g5
sg14
I12
sg15
g5
sg16
I26
sg17
g5
sg18
F0.0
sg19
I17500
sg20
F0.3157894736842105
sg21
g5
sg22
g5
sg23
I0
sg24
I0
sg25
F0.0
sg26
g5
sg27
g5
sg28
g5
sg29
g5
ssS'GOLD JOSEPH'
p162
(dp163
g3
g5
sg4
g5
sg6
g5
sg7
I00
sg8
g5
sg9
S'joe.gold@enron.com'
p164
sg11
I304805
sg12
g32
sg13
g5
sg14
g5
sg15
g5
sg16
g5
sg17
I819288
sg18
g32
sg19
g5
sg20
g32
sg21
I750000
sg22
I877611
sg23
g5
sg24
g5
sg25
g32
sg26
I441096
sg27
I272880
sg28
I2146973
sg29
I436515
ssS'BANNANTINE JAMES M'
p165
(dp166
g3
I566
sg4
g5
sg6
I56301
sg7
I00
sg8
I-5104
sg9
S'james.bannantine@enron.com'
p167
sg11
g5
sg12
F0.8724202626641651
sg13
I-560222
sg14
I465
sg15
g5
sg16
I29
sg17
I864523
sg18
F0.0
sg19
g5
sg20
F1.445949674428871
sg21
g5
sg22
I5243487
sg23
I39
sg24
I0
sg25
F0.5735294117647058
sg26
I1757552
sg27
I477
sg28
I916197
sg29
I4046157
ssS'DUNCAN JOHN H'
p168
(dp169
g3
g5
sg4
g5
sg6
g5
sg7
I00
sg8
I-25000
sg9
g5
sg11
g5
sg12
g32
sg13
g5
sg14
g5
sg15
g5
sg16
g5
sg17
g5
sg18
g32
sg19
I102492
sg20
g32
sg21
g5
sg22
I371750
sg23
g5
sg24
g5
sg25
g32
sg26
g5
sg27
g5
sg28
I77492
sg29
I371750
ssS'SHAPIRO RICHARD S'
p170
(dp171
g3
I15149
sg4
g5
sg6
I137767
sg7
I00
sg8
g5
sg9
S'richard.shapiro@enron.com'
p172
sg11
g5
sg12
F0.7783700137551581
sg13
g5
sg14
I4527
sg15
g5
sg16
I1215
sg17
I705
sg18
F0.004272380701985014
sg19
g5
sg20
F0.8400512385223099
sg21
I650000
sg22
I987001
sg23
I74
sg24
I65
sg25
F0.057408844065166796
sg26
I379164
sg27
I269076
sg28
I1057548
sg29
I607837
ssS'SHERRIFF JOHN R'
p173
(dp174
g3
I3187
sg4
g5
sg6
g5
sg7
I00
sg8
g5
sg9
S'john.sherriff@enron.com'
p175
sg11
I554422
sg12
F0.9460188933873145
sg13
g5
sg14
I2103
sg15
g5
sg16
I92
sg17
I1852186
sg18
F0.0071651090342679125
sg19
g5
sg20
F1.1865173357549157
sg21
I1500000
sg22
I3128982
sg23
I28
sg24
I23
sg25
F0.23333333333333334
sg26
I1293424
sg27
I428780
sg28
I4335388
sg29
I1835558
ssS'SHELBY REX'
p176
(dp177
g3
I225
sg4
g5
sg6
I22884
sg7
I01
sg8
I-4167
sg9
S'rex.shelby@enron.com'
p178
sg11
g5
sg12
F0.6363636363636364
sg13
g5
sg14
I91
sg15
g5
sg16
I39
sg17
I1573324
sg18
F0.058577405857740586
sg19
g5
sg20
F0.9449410422213769
sg21
I200000
sg22
I2493616
sg23
I13
sg24
I14
sg25
F0.25
sg26
I869220
sg27
I211844
sg28
I2003885
sg29
I1624396
ssS'LEMAISTRE CHARLES'
p179
(dp180
g3
g5
sg4
g5
sg6
g5
sg7
I00
sg8
I-25000
sg9
g5
sg11
g5
sg12
g32
sg13
g5
sg14
g5
sg15
g5
sg16
g5
sg17
g5
sg18
g32
sg19
I112492
sg20
g32
sg21
g5
sg22
I412878
sg23
g5
sg24
g5
sg25
g32
sg26
g5
sg27
g5
sg28
I87492
sg29
I412878
ssS'DEFFNER JOSEPH M'
p181
(dp182
g3
I714
sg4
g5
sg6
I41626
sg7
I00
sg8
g5
sg9
S'joseph.deffner@enron.com'
p183
sg11
I335349
sg12
F0.7449392712550608
sg13
g5
sg14
I552
sg15
g5
sg16
I74
sg17
I25553
sg18
F0.005571030640668524
sg19
g5
sg20
F1.358975910361338
sg21
I600000
sg22
I159211
sg23
I115
sg24
I4
sg25
F0.6084656084656085
sg26
I141833
sg27
I206121
sg28
I1208649
sg29
I17378
ssS'KISHKILL JOSEPH G'
p184
(dp185
g3
g5
sg4
g5
sg6
I116335
sg7
I00
sg8
I-51042
sg9
S'joe.kishkill@enron.com'
p186
sg11
g5
sg12
g32
sg13
g5
sg14
g5
sg15
g5
sg16
g5
sg17
I465357
sg18
g32
sg19
g5
sg20
g32
sg21
g5
sg22
I1034346
sg23
g5
sg24
g5
sg25
g32
sg26
I1034346
sg27
I174246
sg28
I704896
sg29
g5
ssS'WHALLEY LAWRENCE G'
p187
(dp188
g3
I6019
sg4
g5
sg6
I57838
sg7
I00
sg8
g5
sg9
S'greg.whalley@enron.com'
p189
sg11
I808346
sg12
F0.8408408408408409
sg13
g5
sg14
I3920
sg15
g5
sg16
I556
sg17
I301026
sg18
F0.003971537315902697
sg19
g5
sg20
F1.095486232604183
sg21
I3000000
sg22
I6079137
sg23
I186
sg24
I24
sg25
F0.25067385444743934
sg26
I2796177
sg27
I510364
sg28
I4677574
sg29
I3282960
ssS'MCCONNELL MICHAEL S'
p190
(dp191
g3
I3329
sg4
g5
sg6
I81364
sg7
I00
sg8
g5
sg9
S'mike.mcconnell@enron.com'
p192
sg11
I554422
sg12
F0.43579534142942467
sg13
g5
sg14
I2189
sg15
g5
sg16
I2742
sg17
I540
sg18
F0.05506670451319898
sg19
g5
sg20
F0.5233249958367662
sg21
I1100000
sg22
I3101279
sg23
I92
sg24
I194
sg25
F0.032462949894142556
sg26
I1478269
sg27
I365038
sg28
I2101364
sg29
I1623010
ssS'PIRO JIM'
p193
(dp194
g3
I58
sg4
g5
sg6
g5
sg7
I00
sg8
g5
sg9
S'jim.piro@enron.com'
p195
sg11
g5
sg12
F0.15789473684210525
sg13
g5
sg14
I3
sg15
g5
sg16
I16
sg17
g5
sg18
F0.01694915254237288
sg19
g5
sg20
F0.17484388938447815
sg21
g5
sg22
I47304
sg23
I0
sg24
I1
sg25
F0.0
sg26
I47304
sg27
g5
sg28
g5
sg29
g5
ssS'DELAINEY DAVID W'
p196
(dp197
g3
I3093
sg4
g5
sg6
I86174
sg7
I01
sg8
g5
sg9
S'david.delainey@enron.com'
p198
sg11
I1294981
sg12
F0.400802752293578
sg13
g5
sg14
I2097
sg15
g5
sg16
I3069
sg17
I1661
sg18
F0.16450567260940033
sg19
g5
sg20
F0.5863610564819257
sg21
I3000000
sg22
I3614261
sg23
I66
sg24
I609
sg25
F0.021052631578947368
sg26
I1323148
sg27
I365163
sg28
I4747979
sg29
I2291113
ssS'SULLIVAN-SHAKLOVITZ COLLEEN'
p199
(dp200
g3
g5
sg4
I181993
sg6
g5
sg7
I00
sg8
g5
sg9
g5
sg11
I554422
sg12
g32
sg13
g5
sg14
g5
sg15
g5
sg16
g5
sg17
I162
sg18
g32
sg19
g5
sg20
g32
sg21
I100000
sg22
I1362375
sg23
g5
sg24
g5
sg25
g32
sg26
g5
sg27
I162779
sg28
I999356
sg29
I1362375
ssS'WROBEL BRUCE'
p201
(dp202
g3
g5
sg4
g5
sg6
g5
sg7
I00
sg8
g5
sg9
g5
sg11
g5
sg12
g32
sg13
g5
sg14
g5
sg15
g5
sg16
g5
sg17
g5
sg18
g32
sg19
g5
sg20
g32
sg21
g5
sg22
I139130
sg23
g5
sg24
g5
sg25
g32
sg26
g5
sg27
g5
sg28
g5
sg29
I139130
ssS'LINDHOLM TOD A'
p203
(dp204
g3
g5
sg4
I204075
sg6
I57727
sg7
I00
sg8
g5
sg9
S'tod.lindholm@enron.com'
p205
sg11
I175000
sg12
g32
sg13
g5
sg14
g5
sg15
g5
sg16
g5
sg17
I2630
sg18
g32
sg19
g5
sg20
g32
sg21
I200000
sg22
I3064208
sg23
g5
sg24
g5
sg25
g32
sg26
I514847
sg27
I236457
sg28
I875889
sg29
I2549361
ssS'MEYER JEROME J'
p206
(dp207
g3
g5
sg4
g5
sg6
I2151
sg7
I00
sg8
I-38346
sg9
g5
sg11
g5
sg12
g32
sg13
g5
sg14
g5
sg15
g5
sg16
g5
sg17
g5
sg18
g32
sg19
I38346
sg20
g32
sg21
g5
sg22
g5
sg23
g5
sg24
g5
sg25
g32
sg26
g5
sg27
g5
sg28
I2151
sg29
g5
ssS'LAY KENNETH L'
p208
(dp209
g3
I4273
sg4
I202911
sg6
I99832
sg7
I01
sg8
I-300000
sg9
S'kenneth.lay@enron.com'
p210
sg11
I3600000
sg12
F0.9381322957198444
sg13
g5
sg14
I2411
sg15
I81525000
sg16
I36
sg17
I10359729
sg18
F0.0037304733038004195
sg19
g5
sg20
F1.7154476746840222
sg21
I7000000
sg22
I49110078
sg23
I123
sg24
I16
sg25
F0.7735849056603774
sg26
I14761694
sg27
I1072321
sg28
I103559793
sg29
I34348384
ssS'BUTTS ROBERT H'
p211
(dp212
g3
g5
sg4
g5
sg6
I9410
sg7
I00
sg8
I-75000
sg9
S'bob.butts@enron.com'
p213
sg11
I175000
sg12
g32
sg13
g5
sg14
g5
sg15
g5
sg16
g5
sg17
I150656
sg18
g32
sg19
g5
sg20
g32
sg21
I750000
sg22
I417619
sg23
g5
sg24
g5
sg25
g32
sg26
I417619
sg27
I261516
sg28
I1271582
sg29
g5
ssS'OLSON CINDY K'
p214
(dp215
g3
I1184
sg4
I77716
sg6
I63791
sg7
I00
sg8
g5
sg9
S'cindy.olson@enron.com'
p216
sg11
I100000
sg12
F0.9224137931034483
sg13
g5
sg14
I856
sg15
g5
sg16
I52
sg17
I972
sg18
F0.012510425354462052
sg19
g5
sg20
F1.2127019962356882
sg21
I750000
sg22
I2606763
sg23
I20
sg24
I15
sg25
F0.2777777777777778
sg26
I969729
sg27
I329078
sg28
I1321557
sg29
I1637034
ssS'MCDONALD REBECCA'
p217
(dp218
g3
I894
sg4
g5
sg6
g5
sg7
I00
sg8
g5
sg9
S'rebecca.mcdonald@enron.com'
p219
sg11
g5
sg12
F0.9148665819567979
sg13
g5
sg14
I720
sg15
g5
sg16
I13
sg17
g5
sg18
F0.0011173184357541898
sg19
g5
sg20
F1.7219540496462835
sg21
g5
sg22
I1691366
sg23
I54
sg24
I1
sg25
F0.8059701492537313
sg26
I934065
sg27
g5
sg28
g5
sg29
I757301
ssS'CUMBERLAND MICHAEL S'
p220
(dp221
g3
g5
sg4
g5
sg6
I22344
sg7
I00
sg8
g5
sg9
g5
sg11
I275000
sg12
g32
sg13
g5
sg14
g5
sg15
g5
sg16
g5
sg17
I713
sg18
g32
sg19
g5
sg20
g32
sg21
I325000
sg22
I207940
sg23
g5
sg24
g5
sg25
g32
sg26
I207940
sg27
I184899
sg28
I807956
sg29
g5
ssS'GAHN ROBERT S'
p222
(dp223
g3
g5
sg4
I73122
sg6
I50080
sg7
I00
sg8
I-1042
sg9
g5
sg11
g5
sg12
g32
sg13
g5
sg14
g5
sg15
g5
sg16
g5
sg17
I76547
sg18
g32
sg19
g5
sg20
g32
sg21
I509870
sg22
I318607
sg23
g5
sg24
g5
sg25
g32
sg26
I235370
sg27
I192008
sg28
I900585
sg29
I83237
ssS'MCCLELLAN GEORGE'
p224
(dp225
g3
I1744
sg4
g5
sg6
I228763
sg7
I00
sg8
I-125000
sg9
S'george.mcclellan@enron.com'
p226
sg11
g5
sg12
F0.9356687898089172
sg13
g5
sg14
I1469
sg15
g5
sg16
I49
sg17
I51587
sg18
F0.0
sg19
g5
sg20
F1.450520274957432
sg21
I900000
sg22
I947861
sg23
I52
sg24
I0
sg25
F0.5148514851485149
sg26
I441096
sg27
I263413
sg28
I1318763
sg29
I506765
ssS'HERMANN ROBERT J'
p227
(dp228
g3
g5
sg4
g5
sg6
I48357
sg7
I00
sg8
I-280000
sg9
S'robert.hermann@enron.com'
p229
sg11
I150000
sg12
g32
sg13
g5
sg14
g5
sg15
g5
sg16
g5
sg17
I416441
sg18
g32
sg19
g5
sg20
g32
sg21
I700000
sg22
I668132
sg23
g5
sg24
g5
sg25
g32
sg26
I480632
sg27
I262663
sg28
I1297461
sg29
I187500
ssS'SCRIMSHAW MATTHEW'
p230
(dp231
g3
g5
sg4
g5
sg6
g5
sg7
I00
sg8
g5
sg9
S'matthew.scrimshaw@enron.com'
p232
sg11
g5
sg12
g32
sg13
g5
sg14
g5
sg15
g5
sg16
g5
sg17
g5
sg18
g32
sg19
g5
sg20
g32
sg21
g5
sg22
I759557
sg23
g5
sg24
g5
sg25
g32
sg26
g5
sg27
g5
sg28
g5
sg29
I759557
ssS'GATHMANN WILLIAM D'
p233
(dp234
g3
g5
sg4
g5
sg6
g5
sg7
I00
sg8
g5
sg9
g5
sg11
g5
sg12
g32
sg13
I-72419
sg14
g5
sg15
g5
sg16
g5
sg17
g5
sg18
g32
sg19
g5
sg20
g32
sg21
g5
sg22
I1945360
sg23
g5
sg24
g5
sg25
g32
sg26
I264013
sg27
g5
sg28
g5
sg29
I1753766
ssS'HAEDICKE MARK E'
p235
(dp236
g3
I4009
sg4
I2157527
sg6
I76169
sg7
I00
sg8
I-934484
sg9
S'mark.haedicke@enron.com'
p237
sg11
I983346
sg12
F0.4654737903225806
sg13
I-329825
sg14
I1847
sg15
g5
sg16
I1941
sg17
I52382
sg18
F0.014987714987714987
sg19
g5
sg20
F0.5653271347303805
sg21
I1150000
sg22
I803094
sg23
I180
sg24
I61
sg25
F0.08486562942008487
sg26
I524169
sg27
I374125
sg28
I3859065
sg29
I608750
ssS'BOWEN JR RAYMOND M'
p238
(dp239
g3
I1858
sg4
g5
sg6
I65907
sg7
I01
sg8
I-833
sg9
S'raymond.bowen@enron.com'
p240
sg11
I974293
sg12
F0.9051136363636364
sg13
g5
sg14
I1593
sg15
g5
sg16
I27
sg17
I1621
sg18
F0.00800854244527496
sg19
g5
sg20
F1.7514455321023243
sg21
I1350000
sg22
I252055
sg23
I140
sg24
I15
sg25
F0.8383233532934131
sg26
I252055
sg27
I278601
sg28
I2669589
sg29
g5
ssS'GILLIS JOHN'
p241
(dp242
g3
g5
sg4
g5
sg6
g5
sg7
I00
sg8
g5
sg9
g5
sg11
g5
sg12
g32
sg13
g5
sg14
g5
sg15
g5
sg16
g5
sg17
g5
sg18
g32
sg19
g5
sg20
g32
sg21
g5
sg22
I85641
sg23
g5
sg24
g5
sg25
g32
sg26
I75838
sg27
g5
sg28
g5
sg29
I9803
ssS'FITZGERALD JAY L'
p243
(dp244
g3
I936
sg4
g5
sg6
I23870
sg7
I00
sg8
g5
sg9
S'jay.fitzgerald@enron.com'
p245
sg11
I556416
sg12
F0.977027027027027
sg13
g5
sg14
I723
sg15
g5
sg16
I16
sg17
I285414
sg18
F0.00847457627118644
sg19
g5
sg20
F1.0443251327099783
sg21
I350000
sg22
I1621236
sg23
I1
sg24
I8
sg25
F0.058823529411764705
sg26
I956775
sg27
I199157
sg28
I1414857
sg29
I664461
ssS'MORAN MICHAEL P'
p246
(dp247
g3
I672
sg4
g5
sg6
g5
sg7
I00
sg8
g5
sg9
S'michael.moran@enron.com'
p248
sg11
g5
sg12
F0.8698630136986302
sg13
g5
sg14
I127
sg15
g5
sg16
I19
sg17
g5
sg18
F0.0
sg19
g5
sg20
F0.8698630136986302
sg21
g5
sg22
I221141
sg23
I0
sg24
I0
sg25
F0.0
sg26
I161602
sg27
g5
sg28
g5
sg29
I59539
ssS'REDMOND BRIAN L'
p249
(dp250
g3
I1671
sg4
g5
sg6
I14689
sg7
I00
sg8
g5
sg9
S'brian.redmond@enron.com'
p251
sg11
g5
sg12
F0.7143817204301075
sg13
g5
sg14
I1063
sg15
g5
sg16
I221
sg17
g5
sg18
F0.028488372093023257
sg19
g5
sg20
F1.2228700925231308
sg21
g5
sg22
I7890324
sg23
I204
sg24
I49
sg25
F0.48
sg26
I381285
sg27
I96840
sg28
I111529
sg29
I7509039
ssS'BAZELIDES PHILIP J'
p252
(dp253
g3
g5
sg4
I684694
sg6
g5
sg7
I00
sg8
g5
sg9
g5
sg11
I93750
sg12
g32
sg13
g5
sg14
g5
sg15
g5
sg16
g5
sg17
I874
sg18
g32
sg19
g5
sg20
g32
sg21
g5
sg22
I1599641
sg23
g5
sg24
g5
sg25
g32
sg26
g5
sg27
I80818
sg28
I860136
sg29
I1599641
ssS'BELDEN TIMOTHY N'
p254
(dp255
g3
I7991
sg4
I2144013
sg6
I17355
sg7
I01
sg8
I-2334434
sg9
S'tim.belden@enron.com'
p256
sg11
g5
sg12
F0.8857692924755335
sg13
g5
sg14
I5521
sg15
g5
sg16
I484
sg17
I210698
sg18
F0.013334979627114458
sg19
g5
sg20
F1.2193289912037715
sg21
I5249999
sg22
I1110705
sg23
I228
sg24
I108
sg25
F0.3202247191011236
sg26
I157569
sg27
I213999
sg28
I5501630
sg29
I953136
ssS'DURAN WILLIAM D'
p257
(dp258
g3
I904
sg4
g5
sg6
I25785
sg7
I00
sg8
g5
sg9
S'w.duran@enron.com'
p259
sg11
I1105218
sg12
F0.8354253835425384
sg13
g5
sg14
I599
sg15
g5
sg16
I12
sg17
I1568
sg18
F0.0033076074972436605
sg19
g5
sg20
F1.7370380757855448
sg21
I750000
sg22
I1640910
sg23
I106
sg24
I3
sg25
F0.8983050847457628
sg26
I189041
sg27
I210692
sg28
I2093263
sg29
I1451869
ssS'THORN TERENCE H'
p260
(dp261
g3
I266
sg4
I16586
sg6
I46145
sg7
I00
sg8
g5
sg9
S'terence.thorn@enron.com'
p262
sg11
I200000
sg12
F0.6403508771929824
sg13
g5
sg14
I73
sg15
g5
sg16
I41
sg17
I426629
sg18
F0.0
sg19
g5
sg20
F0.6403508771929824
sg21
g5
sg22
I4817796
sg23
I0
sg24
I0
sg25
F0.0
sg26
I365320
sg27
I222093
sg28
I911453
sg29
I4452476
ssS'FASTOW ANDREW S'
p263
(dp264
g3
g5
sg4
g5
sg6
I55921
sg7
I01
sg8
I-1386055
sg9
S'andrew.fastow@enron.com'
p265
sg11
I1736055
sg12
g32
sg13
g5
sg14
g5
sg15
g5
sg16
g5
sg17
I277464
sg18
g32
sg19
g5
sg20
g32
sg21
I1300000
sg22
I1794412
sg23
g5
sg24
g5
sg25
g32
sg26
I1794412
sg27
I440698
sg28
I2424083
sg29
g5
ssS'FOY JOE'
p266
(dp267
g3
I57
sg4
I181755
sg6
g5
sg7
I00
sg8
g5
sg9
S'tracy.foy@enron.com'
p268
sg11
g5
sg12
F0.13333333333333333
sg13
g5
sg14
I2
sg15
g5
sg16
I13
sg17
g5
sg18
F0.0
sg19
g5
sg20
F0.13333333333333333
sg21
g5
sg22
I343434
sg23
I0
sg24
I0
sg25
F0.0
sg26
g5
sg27
g5
sg28
I181755
sg29
I343434
ssS'CALGER CHRISTOPHER F'
p269
(dp270
g3
I2598
sg4
g5
sg6
I35818
sg7
I01
sg8
I-262500
sg9
S'christopher.calger@enron.com'
p271
sg11
I375304
sg12
F0.8644804425128407
sg13
g5
sg14
I2188
sg15
g5
sg16
I144
sg17
I486
sg18
F0.009531071292413268
sg19
g5
sg20
F1.4541864409189567
sg21
I1250000
sg22
I126027
sg23
I199
sg24
I25
sg25
F0.5801749271137027
sg26
I126027
sg27
I240189
sg28
I1639297
sg29
g5
ssS'RICE KENNETH D'
p272
(dp273
g3
I905
sg4
g5
sg6
I46950
sg7
I01
sg8
I-3504386
sg9
S'ken.rice@enron.com'
p274
sg11
I1617011
sg12
F0.935064935064935
sg13
g5
sg14
I864
sg15
g5
sg16
I18
sg17
I174839
sg18
F0.0044004400440044
sg19
g5
sg20
F1.6394653751089394
sg21
I1750000
sg22
I22542539
sg23
I42
sg24
I4
sg25
F0.7
sg26
I2748364
sg27
I420636
sg28
I505050
sg29
I19794175
ssS'KAMINSKI WINCENTY J'
p275
(dp276
g3
I4607
sg4
g5
sg6
I83585
sg7
I00
sg8
g5
sg9
S'vince.kaminski@enron.com'
p277
sg11
I323466
sg12
F0.038887406616862324
sg13
g5
sg14
I583
sg15
g5
sg16
I14368
sg17
I4669
sg18
F0.035789033068229385
sg19
g5
sg20
F0.07752188350492653
sg21
I400000
sg22
I976037
sg23
I41
sg24
I171
sg25
F0.0028454438198348255
sg26
I126027
sg27
I275101
sg28
I1086821
sg29
I850010
ssS'COX DAVID'
p278
(dp279
g3
I102
sg4
g5
sg6
I27861
sg7
I00
sg8
I-41250
sg9
S'chip.cox@enron.com'
p280
sg11
g5
sg12
F0.6826923076923077
sg13
g5
sg14
I71
sg15
g5
sg16
I33
sg17
I494
sg18
F0.03773584905660377
sg19
g5
sg20
F0.7204281567489115
sg21
I800000
sg22
I495633
sg23
I0
sg24
I4
sg25
F0.0
sg26
I378082
sg27
I314288
sg28
I1101393
sg29
I117551
ssS'OVERDYKE JR JERE C'
p281
(dp282
g3
g5
sg4
g5
sg6
I18834
sg7
I00
sg8
g5
sg9
S'jere.overdyke@enron.com'
p283
sg11
I135836
sg12
g32
sg13
g5
sg14
g5
sg15
g5
sg16
g5
sg17
I176
sg18
g32
sg19
g5
sg20
g32
sg21
g5
sg22
I7307594
sg23
g5
sg24
g5
sg25
g32
sg26
I2041016
sg27
I94941
sg28
I249787
sg29
I5266578
ssS'PEREIRA PAULO V. FERRAZ'
p284
(dp285
g3
g5
sg4
g5
sg6
I27942
sg7
I00
sg8
I-101250
sg9
g5
sg11
g5
sg12
g32
sg13
g5
sg14
g5
sg15
g5
sg16
g5
sg17
g5
sg18
g32
sg19
I101250
sg20
g32
sg21
g5
sg22
g5
sg23
g5
sg24
g5
sg25
g32
sg26
g5
sg27
g5
sg28
I27942
sg29
g5
ssS'STABLER FRANK'
p286
(dp287
g3
g5
sg4
g5
sg6
I16514
sg7
I00
sg8
g5
sg9
S'frank.stabler@enron.com'
p288
sg11
g5
sg12
g32
sg13
g5
sg14
g5
sg15
g5
sg16
g5
sg17
I356071
sg18
g32
sg19
g5
sg20
g32
sg21
I500000
sg22
I511734
sg23
g5
sg24
g5
sg25
g32
sg26
I511734
sg27
I239502
sg28
I1112087
sg29
g5
ssS'SKILLING JEFFREY K'
p289
(dp290
g3
I3627
sg4
g5
sg6
I29336
sg7
I01
sg8
g5
sg9
S'jeff.skilling@enron.com'
p291
sg11
I1920000
sg12
F0.9124218051831993
sg13
g5
sg14
I2042
sg15
g5
sg16
I108
sg17
I22122
sg18
F0.008203445447087777
sg19
g5
sg20
F1.3696048424670217
sg21
I5600000
sg22
I26093672
sg23
I88
sg24
I30
sg25
F0.4489795918367347
sg26
I6843672
sg27
I1111258
sg28
I8682716
sg29
I19250000
ssS'BLAKE JR. NORMAN P'
p292
(dp293
g3
g5
sg4
g5
sg6
I1279
sg7
I00
sg8
I-113784
sg9
g5
sg11
g5
sg12
g32
sg13
g5
sg14
g5
sg15
g5
sg16
g5
sg17
g5
sg18
g32
sg19
I113784
sg20
g32
sg21
g5
sg22
g5
sg23
g5
sg24
g5
sg25
g32
sg26
g5
sg27
g5
sg28
I1279
sg29
g5
ssS'SHERRICK JEFFREY B'
p294
(dp295
g3
I613
sg4
g5
sg6
g5
sg7
I00
sg8
g5
sg9
S'jeffrey.sherrick@enron.com'
p296
sg11
g5
sg12
F0.9010819165378671
sg13
g5
sg14
I583
sg15
g5
sg16
I25
sg17
g5
sg18
F0.028526148969889066
sg19
g5
sg20
F1.538983065507756
sg21
g5
sg22
I1832468
sg23
I39
sg24
I18
sg25
F0.609375
sg26
I405999
sg27
g5
sg28
g5
sg29
I1426469
ssS'PRENTICE JAMES'
p297
(dp298
g3
g5
sg4
I564348
sg6
g5
sg7
I00
sg8
g5
sg9
S'james.prentice@enron.com'
p299
sg11
g5
sg12
g32
sg13
g5
sg14
g5
sg15
g5
sg16
g5
sg17
g5
sg18
g32
sg19
g5
sg20
g32
sg21
g5
sg22
I1095040
sg23
g5
sg24
g5
sg25
g32
sg26
I208809
sg27
g5
sg28
I564348
sg29
I886231
ssS'GRAY RODNEY'
p300
(dp301
g3
g5
sg4
I93585
sg6
g5
sg7
I00
sg8
g5
sg9
g5
sg11
I365625
sg12
g32
sg13
g5
sg14
g5
sg15
g5
sg16
g5
sg17
I680833
sg18
g32
sg19
g5
sg20
g32
sg21
g5
sg22
g5
sg23
g5
sg24
g5
sg25
g32
sg26
g5
sg27
I6615
sg28
I1146658
sg29
g5
ssS'PICKERING MARK R'
p302
(dp303
g3
I898
sg4
g5
sg6
I31653
sg7
I00
sg8
g5
sg9
S'mark.pickering@enron.com'
p304
sg11
g5
sg12
F0.9077306733167082
sg13
g5
sg14
I728
sg15
I400000
sg16
I67
sg17
g5
sg18
F0.0
sg19
g5
sg20
F1.0023252679113028
sg21
I300000
sg22
I28798
sg23
I7
sg24
I0
sg25
F0.0945945945945946
sg26
g5
sg27
I655037
sg28
I1386690
sg29
I28798
ssS'NOLES JAMES L'
p305
(dp306
g3
g5
sg4
I774401
sg6
g5
sg7
I00
sg8
g5
sg9
g5
sg11
g5
sg12
g32
sg13
I-94556
sg14
g5
sg15
g5
sg16
g5
sg17
g5
sg18
g32
sg19
g5
sg20
g32
sg21
g5
sg22
I368705
sg23
g5
sg24
g5
sg25
g32
sg26
I463261
sg27
g5
sg28
I774401
sg29
g5
ssS'KEAN STEVEN J'
p307
(dp308
g3
I12754
sg4
g5
sg6
I41953
sg7
I00
sg8
g5
sg9
S'steven.kean@enron.com'
p309
sg11
I300000
sg12
F0.34532169292085785
sg13
g5
sg14
I3639
sg15
g5
sg16
I6759
sg17
I1231
sg18
F0.029449813560611826
sg19
g5
sg20
F0.3950643025388693
sg21
I1000000
sg22
I6153642
sg23
I140
sg24
I387
sg25
F0.02029279605739962
sg26
I4131594
sg27
I404338
sg28
I1747522
sg29
I2022048
ssS'FOWLER PEGGY'
p310
(dp311
g3
I517
sg4
g5
sg6
g5
sg7
I00
sg8
g5
sg9
S'kulvinder.fowler@enron.com'
p312
sg11
g5
sg12
F0.21739130434782608
sg13
g5
sg14
I10
sg15
g5
sg16
I36
sg17
g5
sg18
F0.0
sg19
g5
sg20
F0.21739130434782608
sg21
g5
sg22
I1884748
sg23
I0
sg24
I0
sg25
F0.0
sg26
I560170
sg27
g5
sg28
g5
sg29
I1324578
ssS'WASAFF GEORGE'
p313
(dp314
g3
I400
sg4
I831299
sg6
g5
sg7
I00
sg8
I-583325
sg9
S'george.wasaff@enron.com'
p315
sg11
I200000
sg12
F0.8663239074550129
sg13
g5
sg14
I337
sg15
g5
sg16
I30
sg17
I1425
sg18
F0.0171990171990172
sg19
g5
sg20
F1.306599847730953
sg21
I325000
sg22
I2056427
sg23
I22
sg24
I7
sg25
F0.4230769230769231
sg26
I388167
sg27
I259996
sg28
I1034395
sg29
I1668260
ssS'WHITE JR THOMAS E'
p316
(dp317
g3
g5
sg4
g5
sg6
I81353
sg7
I00
sg8
g5
sg9
S'thomas.white@enron.com'
p318
sg11
g5
sg12
g32
sg13
g5
sg14
g5
sg15
g5
sg16
g5
sg17
I1085463
sg18
g32
sg19
g5
sg20
g32
sg21
I450000
sg22
I15144123
sg23
g5
sg24
g5
sg25
g32
sg26
I13847074
sg27
I317543
sg28
I1934359
sg29
I1297049
ssS'CHRISTODOULOU DIOMEDES'
p319
(dp320
g3
g5
sg4
g5
sg6
g5
sg7
I00
sg8
g5
sg9
S'diomedes.christodoulou@enron.com'
p321
sg11
g5
sg12
g32
sg13
g5
sg14
g5
sg15
g5
sg16
g5
sg17
g5
sg18
g32
sg19
g5
sg20
g32
sg21
g5
sg22
I6077885
sg23
g5
sg24
g5
sg25
g32
sg26
I950730
sg27
g5
sg28
g5
sg29
I5127155
ssS'ALLEN PHILLIP K'
p322
(dp323
g3
I2902
sg4
I2869717
sg6
I13868
sg7
I00
sg8
I-3081055
sg9
S'phillip.allen@enron.com'
p324
sg11
I304805
sg12
F0.3855850918059742
sg13
I-126027
sg14
I1407
sg15
g5
sg16
I2195
sg17
I152
sg18
F0.021907650825749917
sg19
g5
sg20
F0.42845616814465903
sg21
I4175000
sg22
I1729541
sg23
I47
sg24
I65
sg25
F0.02096342551293488
sg26
I126027
sg27
I201955
sg28
I4484442
sg29
I1729541
ssS'SHARP VICTORIA T'
p325
(dp326
g3
I3136
sg4
I187469
sg6
I116337
sg7
I00
sg8
g5
sg9
S'vicki.sharp@enron.com'
p327
sg11
I422158
sg12
F0.9393249905195298
sg13
g5
sg14
I2477
sg15
g5
sg16
I136
sg17
I2401
sg18
F0.0019096117122851686
sg19
g5
sg20
F1.091234602231815
sg21
I600000
sg22
I494136
sg23
I24
sg24
I6
sg25
F0.15
sg26
I213063
sg27
I248146
sg28
I1576511
sg29
I281073
ssS'JAEDICKE ROBERT'
p328
(dp329
g3
g5
sg4
g5
sg6
g5
sg7
I00
sg8
I-25000
sg9
g5
sg11
g5
sg12
g32
sg13
I-44093
sg14
g5
sg15
g5
sg16
g5
sg17
g5
sg18
g32
sg19
I108750
sg20
g32
sg21
g5
sg22
I431750
sg23
g5
sg24
g5
sg25
g32
sg26
I44093
sg27
g5
sg28
I83750
sg29
I431750
ssS'WINOKUR JR. HERBERT S'
p330
(dp331
g3
g5
sg4
g5
sg6
I1413
sg7
I00
sg8
I-25000
sg9
g5
sg11
g5
sg12
g32
sg13
g5
sg14
g5
sg15
g5
sg16
g5
sg17
g5
sg18
g32
sg19
I108579
sg20
g32
sg21
g5
sg22
g5
sg23
g5
sg24
g5
sg25
g32
sg26
g5
sg27
g5
sg28
I84992
sg29
g5
ssS'BROWN MICHAEL'
p332
(dp333
g3
I1486
sg4
g5
sg6
I49288
sg7
I00
sg8
g5
sg9
S'michael.brown@enron.com'
p334
sg11
g5
sg12
F0.9337423312883436
sg13
g5
sg14
I761
sg15
g5
sg16
I41
sg17
g5
sg18
F0.0006724949562878278
sg19
g5
sg20
F1.1751555669853722
sg21
g5
sg22
g5
sg23
I13
sg24
I1
sg25
F0.24074074074074073
sg26
g5
sg27
g5
sg28
I49288
sg29
g5
ssS'BADUM JAMES P'
p335
(dp336
g3
g5
sg4
I178980
sg6
I3486
sg7
I00
sg8
g5
sg9
g5
sg11
g5
sg12
g32
sg13
g5
sg14
g5
sg15
g5
sg16
g5
sg17
g5
sg18
g32
sg19
g5
sg20
g32
sg21
g5
sg22
I257817
sg23
g5
sg24
g5
sg25
g32
sg26
g5
sg27
g5
sg28
I182466
sg29
I257817
ssS'HUGHES JAMES A'
p337
(dp338
g3
I719
sg4
g5
sg6
g5
sg7
I00
sg8
g5
sg9
S'james.hughes@enron.com'
p339
sg11
g5
sg12
F0.8951367781155015
sg13
g5
sg14
I589
sg15
g5
sg16
I34
sg17
g5
sg18
F0.006906077348066298
sg19
g5
sg20
F1.409289232275162
sg21
g5
sg22
I1118394
sg23
I35
sg24
I5
sg25
F0.5072463768115942
sg26
I363428
sg27
g5
sg28
g5
sg29
I754966
ssS'REYNOLDS LAWRENCE'
p340
(dp341
g3
g5
sg4
I51365
sg6
I8409
sg7
I00
sg8
I-200000
sg9
g5
sg11
I156250
sg12
g32
sg13
I-140264
sg14
g5
sg15
g5
sg16
g5
sg17
I202052
sg18
g32
sg19
g5
sg20
g32
sg21
I100000
sg22
I4221891
sg23
g5
sg24
g5
sg25
g32
sg26
I201483
sg27
I76399
sg28
I394475
sg29
I4160672
ssS'DIMICHELE RICHARD G'
p342
(dp343
g3
g5
sg4
g5
sg6
I35812
sg7
I00
sg8
g5
sg9
S'richard.dimichele@enron.com'
p344
sg11
I694862
sg12
g32
sg13
g5
sg14
g5
sg15
g5
sg16
g5
sg17
I374689
sg18
g32
sg19
g5
sg20
g32
sg21
I1000000
sg22
I8317782
sg23
g5
sg24
g5
sg25
g32
sg26
I126027
sg27
I262788
sg28
I2368151
sg29
I8191755
ssS'BHATNAGAR SANJAY'
p345
(dp346
g3
I523
sg4
g5
sg6
g5
sg7
I00
sg8
g5
sg9
S'sanjay.bhatnagar@enron.com'
p347
sg11
g5
sg12
F0.9410569105691057
sg13
I15456290
sg14
I463
sg15
g5
sg16
I29
sg17
I137864
sg18
F0.0019083969465648854
sg19
I137864
sg20
F0.9429653075156705
sg21
g5
sS'total_stock_value'
p348
S'NaN'
p349
sg23
I0
sg24
I1
sg25
F0.0
sg26
I-2604490
sg27
g5
sg28
I15456290
sg29
I2604490
ssS'CARTER REBECCA C'
p350
(dp351
g3
I312
sg4
g5
sg6
g5
sg7
I00
sg8
I-159792
sg9
S'rebecca.carter@enron.com'
p352
sg11
I75000
sg12
F0.8166666666666667
sg13
I-307301
sg14
I196
sg15
g5
sg16
I15
sg17
I540
sg18
F0.0219435736677116
sg19
g5
sg20
F1.4977011494252874
sg21
I300000
sg22
g5
sg23
I29
sg24
I7
sg25
F0.6590909090909091
sg26
I307301
sg27
I261809
sg28
I477557
sg29
g5
ssS'BUCHANAN HAROLD G'
p353
(dp354
g3
I1088
sg4
g5
sg6
I600
sg7
I00
sg8
g5
sg9
S'john.buchanan@enron.com'
p355
sg11
I304805
sg12
F0.1554054054054054
sg13
g5
sg14
I23
sg15
g5
sg16
I125
sg17
I1215
sg18
F0.0
sg19
g5
sg20
F0.1554054054054054
sg21
I500000
sg22
I1014505
sg23
I0
sg24
I0
sg25
F0.0
sg26
I189041
sg27
I248017
sg28
I1054637
sg29
I825464
ssS'YEAP SOON'
p356
(dp357
g3
g5
sg4
g5
sg6
I55097
sg7
I00
sg8
g5
sg9
g5
sg11
g5
sg12
g32
sg13
g5
sg14
g5
sg15
g5
sg16
g5
sg17
g5
sg18
g32
sg19
g5
sg20
g32
sg21
g5
sg22
I192758
sg23
g5
sg24
g5
sg25
g32
sg26
g5
sg27
g5
sg28
I55097
sg29
I192758
ssS'MURRAY JULIA H'
p358
(dp359
g3
I2192
sg4
g5
sg6
I57580
sg7
I00
sg8
g5
sg9
S'julia.murray@enron.com'
p360
sg11
I125000
sg12
F0.8758314855875832
sg13
g5
sg14
I395
sg15
g5
sg16
I45
sg17
I330
sg18
F0.0009115770282588879
sg19
g5
sg20
F1.0731716340444135
sg21
I400000
sg22
I597461
sg23
I11
sg24
I2
sg25
F0.19642857142857142
sg26
I196983
sg27
I229284
sg28
I812194
sg29
I400478
ssS'GARLAND C KEVIN'
p361
(dp362
g3
I209
sg4
g5
sg6
I48405
sg7
I00
sg8
g5
sg9
S'kevin.garland@enron.com'
p363
sg11
I375304
sg12
F0.7672413793103449
sg13
g5
sg14
I178
sg15
g5
sg16
I44
sg17
I60814
sg18
F0.11440677966101695
sg19
g5
sg20
F1.066833344156547
sg21
I850000
sg22
I896153
sg23
I10
sg24
I27
sg25
F0.18518518518518517
sg26
I259907
sg27
I231946
sg28
I1566469
sg29
I636246
ssS'DODSON KEITH'
p364
(dp365
g3
I176
sg4
g5
sg6
I28164
sg7
I00
sg8
g5
sg9
S'keith.dodson@enron.com'
p366
sg11
g5
sg12
F0.8260869565217391
sg13
g5
sg14
I114
sg15
g5
sg16
I14
sg17
I774
sg18
F0.01675977653631285
sg19
g5
sg20
F1.2595133997247188
sg21
I70000
sg22
g5
sg23
I10
sg24
I3
sg25
F0.4166666666666667
sg26
g5
sg27
I221003
sg28
I319941
sg29
g5
ssS'YEAGER F SCOTT'
p367
(dp368
g3
g5
sg4
g5
sg6
I53947
sg7
I01
sg8
g5
sg9
S'scott.yeager@enron.com'
p369
sg11
g5
sg12
g32
sg13
g5
sg14
g5
sg15
g5
sg16
g5
sg17
I147950
sg18
g32
sg19
g5
sg20
g32
sg21
g5
sg22
I11884758
sg23
g5
sg24
g5
sg25
g32
sg26
I3576206
sg27
I158403
sg28
I360300
sg29
I8308552
ssS'HIRKO JOSEPH'
p370
(dp371
g3
g5
sg4
I10259
sg6
I77978
sg7
I01
sg8
g5
sg9
S'joe.hirko@enron.com'
p372
sg11
g5
sg12
g32
sg13
g5
sg14
g5
sg15
g5
sg16
g5
sg17
I2856
sg18
g32
sg19
g5
sg20
g32
sg21
g5
sg22
I30766064
sg23
g5
sg24
g5
sg25
g32
sg26
g5
sg27
g5
sg28
I91093
sg29
I30766064
ssS'DIETRICH JANET R'
p373
(dp374
g3
I2572
sg4
g5
sg6
I3475
sg7
I00
sg8
g5
sg9
S'janet.dietrich@enron.com'
p375
sg11
I556416
sg12
F0.8378854625550661
sg13
g5
sg14
I1902
sg15
g5
sg16
I63
sg17
I473
sg18
F0.005413766434648105
sg19
g5
sg20
F1.6721035768158012
sg21
I600000
sg22
I1865087
sg23
I305
sg24
I14
sg25
F0.8288043478260869
sg26
I315068
sg27
I250100
sg28
I1410464
sg29
I1550019
ssS'DERRICK JR. JAMES V'
p376
(dp377
g3
I2181
sg4
g5
sg6
I51124
sg7
I00
sg8
I-1284000
sg9
S'james.derrick@enron.com'
p378
sg11
I484000
sg12
F0.5901432181971357
sg13
I-1787380
sg14
I1401
sg15
g5
sg16
I909
sg17
I7482
sg18
F0.009086778736937756
sg19
g5
sg20
F0.6650059476021104
sg21
I800000
sg22
I8831913
sg23
I64
sg24
I20
sg25
F0.065775950668037
sg26
I1787380
sg27
I492375
sg28
I550981
sg29
I8831913
ssS'FREVERT MARK A'
p379
(dp380
g3
I3275
sg4
I6426990
sg6
I86987
sg7
I00
sg8
I-3367011
sg9
S'mark.frevert@enron.com'
p381
sg11
I1617011
sg12
F0.918877236273905
sg13
g5
sg14
I2979
sg15
I2000000
sg16
I21
sg17
I7427621
sg18
F0.001828710758914965
sg19
g5
sg20
F1.840858038287573
sg21
I2000000
sg22
I14622185
sg23
I242
sg24
I6
sg25
F0.9201520912547528
sg26
I4188667
sg27
I1060932
sg28
I17252530
sg29
I10433518
ssS'PAI LOU L'
p382
(dp383
g3
g5
sg4
g5
sg6
I32047
sg7
I00
sg8
g5
sg9
S'lou.pai@enron.com'
p384
sg11
g5
sg12
g32
sg13
g5
sg14
g5
sg15
g5
sg16
g5
sg17
I1829457
sg18
g32
sg19
g5
sg20
g32
sg21
I1000000
sg22
I23817930
sg23
g5
sg24
g5
sg25
g32
sg26
I8453763
sg27
I261879
sg28
I3123383
sg29
I15364167
ssS'BAY FRANKLIN R'
p385
(dp386
g3
g5
sg4
I260455
sg6
I129142
sg7
I00
sg8
I-201641
sg9
S'frank.bay@enron.com'
p387
sg11
g5
sg12
g32
sg13
I-82782
sg14
g5
sg15
g5
sg16
g5
sg17
I69
sg18
g32
sg19
g5
sg20
g32
sg21
I400000
sg22
I63014
sg23
g5
sg24
g5
sg25
g32
sg26
I145796
sg27
I239671
sg28
I827696
sg29
g5
ssS'HAYSLETT RODERICK J'
p388
(dp389
g3
I2649
sg4
g5
sg6
g5
sg7
I00
sg8
g5
sg9
S'rod.hayslett@enron.com'
p390
sg11
g5
sg12
F0.34253149370125974
sg13
g5
sg14
I571
sg15
g5
sg16
I1061
sg17
g5
sg18
F0.014142165984369185
sg19
g5
sg20
F0.38860796625497196
sg21
g5
sg22
I346663
sg23
I35
sg24
I38
sg25
F0.03193430656934307
sg26
I346663
sg27
g5
sg28
g5
sg29
g5
ssS'FUGH JOHN L'
p391
(dp392
g3
g5
sg4
I50591
sg6
g5
sg7
I00
sg8
g5
sg9
g5
sg11
g5
sg12
g32
sg13
g5
sg14
g5
sg15
g5
sg16
g5
sg17
g5
sg18
g32
sg19
g5
sg20
g32
sg21
g5
sg22
I176378
sg23
g5
sg24
g5
sg25
g32
sg26
g5
sg27
g5
sg28
I50591
sg29
I176378
ssS'FALLON JAMES B'
p393
(dp394
g3
I1755
sg4
g5
sg6
I95924
sg7
I00
sg8
g5
sg9
S'jim.fallon@enron.com'
p395
sg11
I374347
sg12
F0.9320162696106915
sg13
g5
sg14
I1604
sg15
g5
sg16
I75
sg17
I401481
sg18
F0.020647321428571428
sg19
g5
sg20
F1.311637950013622
sg21
I2500000
sg22
I2332399
sg23
I42
sg24
I37
sg25
F0.358974358974359
sg26
I1392142
sg27
I304588
sg28
I3676340
sg29
I940257
ssS'KOENIG MARK E'
p396
(dp397
g3
I2374
sg4
g5
sg6
I127017
sg7
I01
sg8
g5
sg9
S'mark.koenig@enron.com'
p398
sg11
I300000
sg12
F0.9522012578616352
sg13
g5
sg14
I2271
sg15
g5
sg16
I61
sg17
I150458
sg18
F0.006278777731268313
sg19
g5
sg20
F1.423392316294658
sg21
I700000
sg22
I1920055
sg23
I53
sg24
I15
sg25
F0.4649122807017544
sg26
I1248318
sg27
I309946
sg28
I1587421
sg29
I671737
ssS'SAVAGE FRANK'
p399
(dp400
g3
g5
sg4
g5
sg6
g5
sg7
I00
sg8
I-121284
sg9
g5
sg11
g5
sg12
g32
sg13
g5
sg14
g5
sg15
g5
sg16
g5
sg17
g5
sg18
g32
sg19
I125034
sg20
g32
sg21
g5
sg22
g5
sg23
g5
sg24
g5
sg25
g32
sg26
g5
sg27
g5
sg28
I3750
sg29
g5
ssS'IZZO LAWRENCE L'
p401
(dp402
g3
I496
sg4
g5
sg6
I28093
sg7
I00
sg8
g5
sg9
S'larry.izzo@enron.com'
p403
sg11
I312500
sg12
F0.9028925619834711
sg13
g5
sg14
I437
sg15
g5
sg16
I19
sg17
I1553729
sg18
F0.00998003992015968
sg19
g5
sg20
F1.5086172827546946
sg21
g5
sg22
I5819980
sg23
I28
sg24
I5
sg25
F0.5957446808510638
sg26
I3654808
sg27
I85274
sg28
I1979596
sg29
I2165172
ssS'TILNEY ELIZABETH A'
p404
(dp405
g3
I460
sg4
g5
sg6
g5
sg7
I00
sg8
I-575000
sg9
S'elizabeth.tilney@enron.com'
p406
sg11
I275000
sg12
F0.928921568627451
sg13
g5
sg14
I379
sg15
g5
sg16
I19
sg17
I152055
sg18
F0.02335456475583864
sg19
g5
sg20
F1.2971037195901862
sg21
I300000
sg22
I1168042
sg23
I10
sg24
I11
sg25
F0.3448275862068966
sg26
I576792
sg27
I247338
sg28
I399393
sg29
I591250
ssS'MARTIN AMANDA K'
p407
(dp408
g3
I1522
sg4
I85430
sg6
I8211
sg7
I00
sg8
g5
sg9
S'a..martin@enron.com'
p409
sg11
I5145434
sg12
F0.6671328671328671
sg13
g5
sg14
I477
sg15
g5
sg16
I230
sg17
I2818454
sg18
F0.0
sg19
g5
sg20
F0.7007463125110184
sg21
g5
sg22
I2070306
sg23
I8
sg24
I0
sg25
F0.03361344537815126
sg26
g5
sg27
I349487
sg28
I8407016
sg29
I2070306
ssS'BUY RICHARD B'
p410
(dp411
g3
I3523
sg4
I649584
sg6
g5
sg7
I00
sg8
I-694862
sg9
S'rick.buy@enron.com'
p412
sg11
I769862
sg12
F0.6586674195369847
sg13
g5
sg14
I2333
sg15
g5
sg16
I1053
sg17
I400572
sg18
F0.019755147468002224
sg19
g5
sg20
F0.8074548250695031
sg21
I900000
sg22
I3444470
sg23
I156
sg24
I71
sg25
F0.12903225806451613
sg26
I901657
sg27
I330546
sg28
I2355702
sg29
I2542813
ssS'GRAMM WENDY L'
p413
(dp414
g3
g5
sg4
g5
sg6
g5
sg7
I00
sg8
g5
sg9
g5
sg11
g5
sg12
g32
sg13
g5
sg14
g5
sg15
g5
sg16
g5
sg17
g5
sg18
g32
sg19
I119292
sg20
g32
sg21
g5
sg22
g5
sg23
g5
sg24
g5
sg25
g32
sg26
g5
sg27
g5
sg28
I119292
sg29
g5
ssS'CAUSEY RICHARD A'
p415
(dp416
g3
I1892
sg4
g5
sg6
I30674
sg7
I01
sg8
I-235000
sg9
S'richard.causey@enron.com'
p417
sg11
I350000
sg12
F0.9367612293144209
sg13
g5
sg14
I1585
sg15
g5
sg16
I49
sg17
I307895
sg18
F0.0063025210084033615
sg19
g5
sg20
F1.4851198250891793
sg21
I1000000
sg22
I2502063
sg23
I58
sg24
I12
sg25
F0.5420560747663551
sg26
I2502063
sg27
I415189
sg28
I1868758
sg29
g5
ssS'TAYLOR MITCHELL S'
p418
(dp419
g3
I533
sg4
I227449
sg6
g5
sg7
I00
sg8
g5
sg9
S'mitchell.taylor@enron.com'
p420
sg11
g5
sg12
F0.9118541033434651
sg13
g5
sg14
I300
sg15
g5
sg16
I29
sg17
g5
sg18
F0.0
sg19
g5
sg20
F0.9118541033434651
sg21
I600000
sg22
I3745048
sg23
I0
sg24
I0
sg25
F0.0
sg26
I563798
sg27
I265214
sg28
I1092663
sg29
I3181250
ssS'DONAHUE JR JEFFREY M'
p421
(dp422
g3
I865
sg4
g5
sg6
I96268
sg7
I00
sg8
I-300000
sg9
S'jeff.donahue@enron.com'
p423
sg11
g5
sg12
F0.7861507128309573
sg13
g5
sg14
I772
sg15
g5
sg16
I22
sg17
I891
sg18
F0.012557077625570776
sg19
g5
sg20
F1.6939458856946232
sg21
I800000
sg22
I1080988
sg23
I188
sg24
I11
sg25
F0.8952380952380953
sg26
I315068
sg27
I278601
sg28
I875760
sg29
I765920
ssS'GLISAN JR BEN F'
p424
(dp425
g3
I873
sg4
g5
sg6
I125978
sg7
I01
sg8
g5
sg9
S'ben.glisan@enron.com'
p426
sg11
I71023
sg12
F0.9278131634819533
sg13
g5
sg14
I874
sg15
g5
sg16
I16
sg17
I200308
sg18
F0.006825938566552901
sg19
g5
sg20
F1.6993449844014474
sg21
I600000
sg22
I778546
sg23
I52
sg24
I6
sg25
F0.7647058823529411
sg26
I393818
sg27
I274975
sg28
I1272284
sg29
I384728
ss.